target datalayout = "e-m:e-p270:32:32-p271:32:32-p272:64:64-i64:64-i128:128-f80:128-n8:16:32:64-S128"
target triple = "x86_64-pc-linux-gnu"

%"class.nlsat::simple_checker" = type { ptr }
%"struct.nlsat::simple_checker::imp" = type { ptr, ptr, ptr, ptr, ptr, i32, %class.vector, %class.vector.0, i8, %class.vector.1 }
%class.vector = type { ptr }
%class.vector.0 = type { ptr }
%class.vector.1 = type { ptr }
%"struct.nlsat::simple_checker::imp::Clause_Visit_Tag" = type { i8, %class.svector.8 }
%class.svector.8 = type { %class.vector.9 }
%class.vector.9 = type { ptr }
%class.vector.2 = type { ptr }

; Function Attrs: mustprogress nounwind uwtable
define linkonce_odr hidden noundef nonnull align 8 dereferenceable(16) ptr @_ZN6vectorIN5nlsat14simple_checker3imp16Clause_Visit_TagELb1EjEixEj(ptr noundef nonnull align 8 dereferenceable(8) %0, i32 noundef %1) #4 comdat align 2 {
  %3 = alloca ptr, align 8
  %4 = alloca i32, align 4
  store ptr %0, ptr %3, align 8, !tbaa !51
  store i32 %1, ptr %4, align 4, !tbaa !8
  %5 = load ptr, ptr %3, align 8
  %6 = getelementptr inbounds nuw %class.vector.0, ptr %5, i32 0, i32 0
  %7 = load ptr, ptr %6, align 8, !tbaa !53
  %8 = load i32, ptr %4, align 4, !tbaa !8
  %9 = zext i32 %8 to i64
  %10 = getelementptr inbounds nuw %"struct.nlsat::simple_checker::imp::Clause_Visit_Tag", ptr %7, i64 %9
  ret ptr %10
}

; Function Attrs: mustprogress nounwind uwtable
define linkonce_odr hidden noundef i32 @_ZNK6vectorIPN5nlsat6clauseELb0EjE4sizeEv(ptr noundef nonnull align 8 dereferenceable(8) %0) #4 comdat align 2 {
  %2 = alloca i32, align 4
  %3 = alloca ptr, align 8
  store ptr %0, ptr %3, align 8, !tbaa !61
  %4 = load ptr, ptr %3, align 8
  %5 = getelementptr inbounds nuw %class.vector.2, ptr %4, i32 0, i32 0
  %6 = load ptr, ptr %5, align 8, !tbaa !63
  %7 = icmp eq ptr %6, null
  br i1 %7, label %8, label %9

8:                                                ; preds = %1
  store i32 0, ptr %2, align 4
  br label %14

9:                                                ; preds = %1
  %10 = getelementptr inbounds nuw %class.vector.2, ptr %4, i32 0, i32 0
  %11 = load ptr, ptr %10, align 8, !tbaa !63
  %12 = getelementptr inbounds i32, ptr %11, i64 -1
  %13 = load i32, ptr %12, align 4, !tbaa !8
  store i32 %13, ptr %2, align 4
  br label %14

14:                                               ; preds = %9, %8
  %15 = load i32, ptr %2, align 4
  ret i32 %15
}

; Function Attrs: mustprogress uwtable
define linkonce_odr hidden noundef zeroext i1 @_ZN5nlsat14simple_checker3imp5checkEv(ptr noundef nonnull align 8 dereferenceable(80) %0) #6 comdat align 2 {
  %2 = alloca i1, align 1
  %3 = alloca ptr, align 8
  %4 = alloca i32, align 4
  %5 = alloca i32, align 4
  %6 = alloca i32, align 4
  store ptr %0, ptr %3, align 8, !tbaa !33
  %7 = load ptr, ptr %3, align 8
  call void @llvm.lifetime.start.p0(i64 4, ptr %4) #3
  store i32 0, ptr %4, align 4, !tbaa !8
  call void @llvm.lifetime.start.p0(i64 4, ptr %5) #3
  %8 = getelementptr inbounds nuw %"struct.nlsat::simple_checker::imp", ptr %7, i32 0, i32 2
  %9 = load ptr, ptr %8, align 8, !tbaa !45
  %10 = call noundef i32 @_ZNK6vectorIPN5nlsat6clauseELb0EjE4sizeEv(ptr noundef nonnull align 8 dereferenceable(8) %9)
  store i32 %10, ptr %5, align 4, !tbaa !8
  br label %11

11:                                               ; preds = %29, %1
  %12 = load i32, ptr %4, align 4, !tbaa !8
  %13 = load i32, ptr %5, align 4, !tbaa !8
  %14 = icmp ult i32 %12, %13
  br i1 %14, label %16, label %15

15:                                               ; preds = %11
  store i32 2, ptr %6, align 4
  br label %32

16:                                               ; preds = %11
  %17 = getelementptr inbounds nuw %"struct.nlsat::simple_checker::imp", ptr %7, i32 0, i32 7
  %18 = load i32, ptr %4, align 4, !tbaa !8
  %19 = call noundef nonnull align 8 dereferenceable(16) ptr @_ZN6vectorIN5nlsat14simple_checker3imp16Clause_Visit_TagELb1EjEixEj(ptr noundef nonnull align 8 dereferenceable(8) %17, i32 noundef %18)
  %20 = getelementptr inbounds nuw %"struct.nlsat::simple_checker::imp::Clause_Visit_Tag", ptr %19, i32 0, i32 0
  %21 = load i8, ptr %20, align 8, !tbaa !142, !range !12, !noundef !13
  %22 = trunc i8 %21 to i1
  br i1 %22, label %23, label %24

23:                                               ; preds = %16
  br label %29

24:                                               ; preds = %16
  %25 = load i32, ptr %4, align 4, !tbaa !8
  %26 = call noundef zeroext i1 @_ZN5nlsat14simple_checker3imp24check_clause_satisfiableEj(ptr noundef nonnull align 8 dereferenceable(80) %7, i32 noundef %25)
  br i1 %26, label %28, label %27

27:                                               ; preds = %24
  store i1 false, ptr %2, align 1
  store i32 1, ptr %6, align 4
  br label %32

28:                                               ; preds = %24
  br label %29

29:                                               ; preds = %28, %23
  %30 = load i32, ptr %4, align 4, !tbaa !8
  %31 = add i32 %30, 1
  store i32 %31, ptr %4, align 4, !tbaa !8
  br label %11, !llvm.loop !195

32:                                               ; preds = %27, %15
  call void @llvm.lifetime.end.p0(i64 4, ptr %5) #3
  call void @llvm.lifetime.end.p0(i64 4, ptr %4) #3
  %33 = load i32, ptr %6, align 4
  switch i32 %33, label %37 [
    i32 2, label %34
    i32 1, label %35
  ]

34:                                               ; preds = %32
  store i1 true, ptr %2, align 1
  br label %35

35:                                               ; preds = %34, %32
  %36 = load i1, ptr %2, align 1
  ret i1 %36

37:                                               ; preds = %32
  unreachable
}

; Function Attrs: mustprogress uwtable
define linkonce_odr hidden noundef zeroext i1 @_ZN5nlsat14simple_checker3impclEv(ptr noundef nonnull align 8 dereferenceable(80) %0) #6 comdat align 2 {
  %2 = alloca i1, align 1
  %3 = alloca ptr, align 8
  store ptr %0, ptr %3, align 8, !tbaa !33
  %4 = load ptr, ptr %3, align 8
  %5 = getelementptr inbounds nuw %"struct.nlsat::simple_checker::imp", ptr %4, i32 0, i32 8
  store i8 1, ptr %5, align 8, !tbaa !46
  br label %6

6:                                                ; preds = %14, %1
  %7 = getelementptr inbounds nuw %"struct.nlsat::simple_checker::imp", ptr %4, i32 0, i32 8
  %8 = load i8, ptr %7, align 8, !tbaa !46, !range !12, !noundef !13
  %9 = trunc i8 %8 to i1
  br i1 %9, label %10, label %15

10:                                               ; preds = %6
  %11 = getelementptr inbounds nuw %"struct.nlsat::simple_checker::imp", ptr %4, i32 0, i32 8
  store i8 0, ptr %11, align 8, !tbaa !46
  %12 = call noundef zeroext i1 @_ZN5nlsat14simple_checker3imp5checkEv(ptr noundef nonnull align 8 dereferenceable(80) %4)
  br i1 %12, label %14, label %13

13:                                               ; preds = %10
  store i1 false, ptr %2, align 1
  br label %16

14:                                               ; preds = %10
  br label %6, !llvm.loop !47

15:                                               ; preds = %6
  store i1 true, ptr %2, align 1
  br label %16

16:                                               ; preds = %15, %13
  %17 = load i1, ptr %2, align 1
  ret i1 %17
}

; Function Attrs: mustprogress uwtable
define hidden noundef zeroext i1 @_ZN5nlsat14simple_checkerclEv(ptr noundef nonnull align 8 dereferenceable(8) %0) #6 align 2 {
  %2 = alloca ptr, align 8
  store ptr %0, ptr %2, align 8, !tbaa !16
  %3 = load ptr, ptr %2, align 8
  %4 = getelementptr inbounds nuw %"class.nlsat::simple_checker", ptr %3, i32 0, i32 0
  %5 = load ptr, ptr %4, align 8, !tbaa !30
  %6 = call noundef zeroext i1 @_ZN5nlsat14simple_checker3impclEv(ptr noundef nonnull align 8 dereferenceable(80) %5)
  ret i1 %6
}