; Function Attrs: mustprogress uwtable
define hidden noundef zeroext i1 @_ZN5nlsat14simple_checkerclEv(ptr noundef nonnull readonly align 8 captures(none) dereferenceable(8) %0) local_unnamed_addr #4 align 2 {
  %2 = load ptr, ptr %0, align 8, !tbaa !3
  %3 = getelementptr inbounds nuw i8, ptr %2, i64 64
  %4 = getelementptr inbounds nuw i8, ptr %2, i64 16
  %5 = getelementptr inbounds nuw i8, ptr %2, i64 56
  %6 = load ptr, ptr %4, align 8, !tbaa !31
  %7 = load ptr, ptr %6, align 8, !tbaa !32
  %8 = icmp eq ptr %7, null
  br i1 %8, label %._ZN5nlsat14simple_checker3imp5checkEv.exit.thread.loopexit3_crit_edge.split.us.i, label %.lr.ph.split.i

._ZN5nlsat14simple_checker3imp5checkEv.exit.thread.loopexit3_crit_edge.split.us.i: ; preds = %1
  store i8 0, ptr %3, align 8, !tbaa !57
  br label %_ZN5nlsat14simple_checker3impclEv.exit

.lr.ph.split.i:                                   ; preds = %1, %_ZN5nlsat14simple_checker3imp5checkEv.exit.i
  store i8 0, ptr %3, align 8, !tbaa !57
  %9 = load ptr, ptr %4, align 8, !tbaa !31
  %10 = load ptr, ptr %9, align 8, !tbaa !32
  %11 = icmp eq ptr %10, null
  br i1 %11, label %_ZN5nlsat14simple_checker3impclEv.exit, label %_ZNK6vectorIPN5nlsat6clauseELb0EjE4sizeEv.exit.i.i

_ZNK6vectorIPN5nlsat6clauseELb0EjE4sizeEv.exit.i.i: ; preds = %.lr.ph.split.i
  %12 = getelementptr inbounds i8, ptr %10, i64 -4
  %13 = load i32, ptr %12, align 4, !tbaa !19
  %14 = icmp eq i32 %13, 0
  br i1 %14, label %_ZN5nlsat14simple_checker3impclEv.exit, label %.lr.ph.i.i

.lr.ph.i.i:                                       ; preds = %_ZNK6vectorIPN5nlsat6clauseELb0EjE4sizeEv.exit.i.i
  %wide.trip.count.i.i = zext i32 %13 to i64
  br label %15

15:                                               ; preds = %23, %.lr.ph.i.i
  %indvars.iv.i.i = phi i64 [ 0, %.lr.ph.i.i ], [ %indvars.iv.next.i.i, %23 ]
  %16 = load ptr, ptr %5, align 8, !tbaa !36
  %17 = getelementptr inbounds nuw %"struct.nlsat::simple_checker::imp::Clause_Visit_Tag", ptr %16, i64 %indvars.iv.i.i
  %18 = load i8, ptr %17, align 8, !tbaa !43, !range !58, !noundef !59
  %19 = trunc nuw i8 %18 to i1
  br i1 %19, label %23, label %20

20:                                               ; preds = %15
  %21 = trunc nuw i64 %indvars.iv.i.i to i32
  %22 = tail call noundef zeroext i1 @_ZN5nlsat14simple_checker3imp24check_clause_satisfiableEj(ptr noundef nonnull align 8 dereferenceable(80) %2, i32 noundef %21)
  br i1 %22, label %23, label %_ZN5nlsat14simple_checker3impclEv.exit

23:                                               ; preds = %20, %15
  %indvars.iv.next.i.i = add nuw nsw i64 %indvars.iv.i.i, 1
  %exitcond.not.i.i = icmp eq i64 %indvars.iv.next.i.i, %wide.trip.count.i.i
  br i1 %exitcond.not.i.i, label %_ZN5nlsat14simple_checker3imp5checkEv.exit.i, label %15, !llvm.loop !60

_ZN5nlsat14simple_checker3imp5checkEv.exit.i:     ; preds = %23
  %.pre.i = load i8, ptr %3, align 8, !tbaa !57, !range !58
  %24 = trunc nuw i8 %.pre.i to i1
  br i1 %24, label %.lr.ph.split.i, label %_ZN5nlsat14simple_checker3impclEv.exit, !llvm.loop !61

_ZN5nlsat14simple_checker3impclEv.exit:           ; preds = %.lr.ph.split.i, %_ZNK6vectorIPN5nlsat6clauseELb0EjE4sizeEv.exit.i.i, %_ZN5nlsat14simple_checker3imp5checkEv.exit.i, %20, %._ZN5nlsat14simple_checker3imp5checkEv.exit.thread.loopexit3_crit_edge.split.us.i
  %.0.i = phi i1 [ true, %._ZN5nlsat14simple_checker3imp5checkEv.exit.thread.loopexit3_crit_edge.split.us.i ], [ false, %20 ], [ true, %_ZN5nlsat14simple_checker3imp5checkEv.exit.i ], [ true, %_ZNK6vectorIPN5nlsat6clauseELb0EjE4sizeEv.exit.i.i ], [ true, %.lr.ph.split.i ]
  ret i1 %.0.i
}